#include <math.h>
#include <stdio.h>
#include <stdlib.h>
#include <string.h>

main()
{
     int n,i,j,k,l;
     scanf("%d",&n);
     if(n+(12%7)-7==5||n+(12%7)==5) printf("1\n");
     if(n+((31+12)%7)-7==5||n+((31+12)%7)==5) printf("2\n");
     if(n+((31+28+12)%7)-7==5|| n+((31+28+12)%7)==5) printf("3\n");
     if(n+((31+28+31+12)%7)-7==5||n+((31+28+31+12)%7)==5) printf("4\n");
     if(n+((31+28+31+30+12)%7)-7==5||n+((31+28+31+30+12)%7)==5) printf("5\n");
     if(n+((31+28+31+30+31+12)%7)-7==5||n+((31+28+31+30+31+12)%7)==5) printf("6\n");
     if(n+((31+28+31+30+31+30+12)%7)-7==5||n+((31+28+31+30+31+30+12)%7)==5) printf("7\n");
     if(n+((31+28+31+30+31+30+31+12)%7)-7==5||n+((31+28+31+30+31+30+31+12)%7)==5) printf("8\n");
     if(n+((31+28+31+30+31+30+31+31+12)%7)-7==5||n+((31+28+31+30+31+30+31+31+12)%7)==5) printf("9\n");
     if(n+((31+28+31+30+31+30+31+31+30+12)%7)-7==5||n+((31+28+31+30+31+30+31+31+30+12)%7)==5) printf("10\n");
     if(n+((31+28+31+30+31+30+31+31+30+31+12)%7)-7==5||n+((31+28+31+30+31+30+31+31+30+31+12)%7)==5) printf("11\n");
     if(n+((31+28+31+30+31+30+31+31+30+31+30+12)%7)-7==5||n+((31+28+31+30+31+30+31+31+30+31+30+12)%7)==5) printf("12\n");
}
